; Function Attrs: nounwind uwtable
define internal fastcc i32 @LocatePatch(ptr nocapture noundef %0, ptr noundef %1) unnamed_addr #0 {
  %3 = getelementptr inbounds i8, ptr %0, i64 4
  %4 = load i32, ptr %3, align 4
  %5 = load i32, ptr %0, align 8
  %.not.i = icmp ult i32 %4, %5
  br i1 %.not.i, label %8, label %6

6:                                                ; preds = %2
  tail call void (ptr, ptr, ...) @SynError(ptr noundef nonnull %0, ptr noundef nonnull @.str.81, i32 noundef %4)
  %7 = getelementptr inbounds i8, ptr %0, i64 16
  br label %GetTable.exit

8:                                                ; preds = %2
  %9 = getelementptr inbounds i8, ptr %0, i64 16
  %10 = zext i32 %4 to i64
  %11 = getelementptr inbounds %struct._Table, ptr %9, i64 %10
  br label %GetTable.exit

GetTable.exit:                                    ; preds = %6, %8
  %.0.i = phi ptr [ %7, %6 ], [ %11, %8 ]
  %12 = getelementptr inbounds i8, ptr %.0.i, i64 1028
  %13 = load i32, ptr %12, align 4
  %14 = icmp sgt i32 %13, 0
  br i1 %14, label %.lr.ph, label %._crit_edge

.lr.ph:                                           ; preds = %GetTable.exit
  %15 = getelementptr inbounds i8, ptr %.0.i, i64 1032
  %16 = getelementptr inbounds i8, ptr %0, i64 16
  br label %17

17:                                               ; preds = %.lr.ph, %GetData.exit.thread
  %.01117 = phi i32 [ 0, %.lr.ph ], [ %42, %GetData.exit.thread ]
  %18 = load i32, ptr %15, align 8
  %19 = load i32, ptr %3, align 4
  %20 = load i32, ptr %0, align 8
  %.not.i.i = icmp ult i32 %19, %20
  br i1 %.not.i.i, label %22, label %21

21:                                               ; preds = %17
  tail call void (ptr, ptr, ...) @SynError(ptr noundef nonnull %0, ptr noundef nonnull @.str.81, i32 noundef %19)
  br label %GetTable.exit.i

22:                                               ; preds = %17
  %23 = zext i32 %19 to i64
  %24 = getelementptr inbounds %struct._Table, ptr %16, i64 %23
  br label %GetTable.exit.i

GetTable.exit.i:                                  ; preds = %22, %21
  %.0.i.i = phi ptr [ %16, %21 ], [ %24, %22 ]
  %25 = getelementptr inbounds i8, ptr %.0.i.i, i64 1024
  %26 = load i32, ptr %25, align 8
  %27 = getelementptr inbounds i8, ptr %.0.i.i, i64 1028
  %28 = load i32, ptr %27, align 4
  %29 = icmp sgt i32 %28, %.01117
  %30 = icmp sgt i32 %18, -1
  %or.cond.not23.i = and i1 %30, %29
  %.not.i13 = icmp sgt i32 %26, %18
  %or.cond20.i = select i1 %or.cond.not23.i, i1 %.not.i13, i1 false
  br i1 %or.cond20.i, label %31, label %GetData.exit.thread

31:                                               ; preds = %GetTable.exit.i
  %32 = getelementptr inbounds i8, ptr %.0.i.i, i64 1056
  %33 = load ptr, ptr %32, align 8
  %.not19.i = icmp eq ptr %33, null
  br i1 %.not19.i, label %GetData.exit.thread, label %GetData.exit

GetData.exit:                                     ; preds = %31
  %34 = mul nsw i32 %26, %.01117
  %35 = add nuw nsw i32 %34, %18
  %36 = zext nneg i32 %35 to i64
  %37 = getelementptr inbounds ptr, ptr %33, i64 %36
  %38 = load ptr, ptr %37, align 8
  %.not = icmp eq ptr %38, null
  br i1 %.not, label %GetData.exit.thread, label %39

39:                                               ; preds = %GetData.exit
  %40 = tail call i32 @cmsstrcasecmp(ptr noundef nonnull %38, ptr noundef %1) #17
  %41 = icmp eq i32 %40, 0
  br i1 %41, label %._crit_edge, label %GetData.exit.thread

GetData.exit.thread:                              ; preds = %31, %GetTable.exit.i, %GetData.exit, %39
  %42 = add nuw nsw i32 %.01117, 1
  %43 = load i32, ptr %12, align 4
  %44 = icmp slt i32 %42, %43
  br i1 %44, label %17, label %._crit_edge, !llvm.loop !54

._crit_edge:                                      ; preds = %39, %GetData.exit.thread, %GetTable.exit
  %.0 = phi i32 [ -1, %GetTable.exit ], [ -1, %GetData.exit.thread ], [ %.01117, %39 ]
  ret i32 %.0
}